target datalayout = "e-m:e-p270:32:32-p271:32:32-p272:64:64-i64:64-i128:128-f80:128-n8:16:32:64-S128"
target triple = "x86_64-pc-linux-gnu"

%"class.euf::enode_class" = type { ptr }
%"class.euf::enode_class::iterator" = type { ptr, ptr }
%"class.euf::enode" = type { ptr, i8, i8, i8, i8, i8, i8, i8, i8, i8, i32, i32, i32, i32, i32, i32, %class.ptr_vector, ptr, ptr, ptr, ptr, %class.id_var_list, %"class.euf::justification", %"class.euf::justification", i32, i8, %class.approx_set, %class.approx_set, [0 x ptr] }
%class.ptr_vector = type { %class.vector }
%class.vector = type { ptr }
%class.id_var_list = type { i32, ptr }
%"class.euf::justification" = type { i32, %union.anon, %union.anon.0 }
%union.anon = type { ptr }
%union.anon.0 = type { ptr }
%class.approx_set = type { %class.approx_set_tpl }
%class.approx_set_tpl = type { i64 }

; Function Attrs: mustprogress nounwind uwtable
define linkonce_odr hidden void @_ZN3euf11enode_class8iteratorC2EPNS_5enodeES3_(ptr noundef nonnull align 8 dereferenceable(16) %0, ptr noundef %1, ptr noundef %2) unnamed_addr #6 comdat align 2 {
  %4 = alloca ptr, align 8
  %5 = alloca ptr, align 8
  %6 = alloca ptr, align 8
  store ptr %0, ptr %4, align 8, !tbaa !42
  store ptr %1, ptr %5, align 8, !tbaa !3
  store ptr %2, ptr %6, align 8, !tbaa !3
  %7 = load ptr, ptr %4, align 8
  %8 = getelementptr inbounds nuw %"class.euf::enode_class::iterator", ptr %7, i32 0, i32 0
  %9 = load ptr, ptr %5, align 8, !tbaa !3
  store ptr %9, ptr %8, align 8, !tbaa !46
  %10 = getelementptr inbounds nuw %"class.euf::enode_class::iterator", ptr %7, i32 0, i32 1
  %11 = load ptr, ptr %6, align 8, !tbaa !3
  store ptr %11, ptr %10, align 8, !tbaa !44
  ret void
}

; Function Attrs: mustprogress nounwind uwtable
define linkonce_odr hidden noundef nonnull align 8 dereferenceable(16) ptr @_ZN3euf11enode_class8iteratorppEv(ptr noundef nonnull align 8 dereferenceable(16) %0) #6 comdat align 2 {
  %2 = alloca ptr, align 8
  store ptr %0, ptr %2, align 8, !tbaa !42
  %3 = load ptr, ptr %2, align 8
  %4 = getelementptr inbounds nuw %"class.euf::enode_class::iterator", ptr %3, i32 0, i32 1
  %5 = load ptr, ptr %4, align 8, !tbaa !44
  %6 = icmp ne ptr %5, null
  br i1 %6, label %11, label %7

7:                                                ; preds = %1
  %8 = getelementptr inbounds nuw %"class.euf::enode_class::iterator", ptr %3, i32 0, i32 0
  %9 = load ptr, ptr %8, align 8, !tbaa !46
  %10 = getelementptr inbounds nuw %"class.euf::enode_class::iterator", ptr %3, i32 0, i32 1
  store ptr %9, ptr %10, align 8, !tbaa !44
  br label %11

11:                                               ; preds = %7, %1
  %12 = getelementptr inbounds nuw %"class.euf::enode_class::iterator", ptr %3, i32 0, i32 0
  %13 = load ptr, ptr %12, align 8, !tbaa !46
  %14 = getelementptr inbounds nuw %"class.euf::enode", ptr %13, i32 0, i32 17
  %15 = load ptr, ptr %14, align 8, !tbaa !47
  %16 = getelementptr inbounds nuw %"class.euf::enode_class::iterator", ptr %3, i32 0, i32 0
  store ptr %15, ptr %16, align 8, !tbaa !46
  ret ptr %3
}

; Function Attrs: inlinehint mustprogress nounwind uwtable
define linkonce_odr noundef nonnull align 4 dereferenceable(4) ptr @_ZSt3minIjERKT_S2_S2_(ptr noundef nonnull align 4 dereferenceable(4) %0, ptr noundef nonnull align 4 dereferenceable(4) %1) #8 comdat {
  %3 = alloca ptr, align 8
  %4 = alloca ptr, align 8
  %5 = alloca ptr, align 8
  store ptr %0, ptr %4, align 8, !tbaa !67
  store ptr %1, ptr %5, align 8, !tbaa !67
  %6 = load ptr, ptr %5, align 8, !tbaa !67
  %7 = load i32, ptr %6, align 4, !tbaa !10
  %8 = load ptr, ptr %4, align 8, !tbaa !67
  %9 = load i32, ptr %8, align 4, !tbaa !10
  %10 = icmp ult i32 %7, %9
  br i1 %10, label %11, label %13

11:                                               ; preds = %2
  %12 = load ptr, ptr %5, align 8, !tbaa !67
  store ptr %12, ptr %3, align 8
  br label %15

13:                                               ; preds = %2
  %14 = load ptr, ptr %4, align 8, !tbaa !67
  store ptr %14, ptr %3, align 8
  br label %15

15:                                               ; preds = %13, %11
  %16 = load ptr, ptr %3, align 8
  ret ptr %16
}

; Function Attrs: mustprogress nounwind uwtable
define linkonce_odr hidden noundef i32 @_ZNK3euf5enode10generationEv(ptr noundef nonnull align 8 dereferenceable(176) %0) #6 comdat align 2 {
  %2 = alloca ptr, align 8
  store ptr %0, ptr %2, align 8, !tbaa !3
  %3 = load ptr, ptr %2, align 8
  %4 = getelementptr inbounds nuw %"class.euf::enode", ptr %3, i32 0, i32 15
  %5 = load i32, ptr %4, align 8, !tbaa !66
  ret i32 %5
}

; Function Attrs: mustprogress nounwind uwtable
define linkonce_odr hidden noundef ptr @_ZN3euf11enode_class8iteratordeEv(ptr noundef nonnull align 8 dereferenceable(16) %0) #6 comdat align 2 {
  %2 = alloca ptr, align 8
  store ptr %0, ptr %2, align 8, !tbaa !42
  %3 = load ptr, ptr %2, align 8
  %4 = getelementptr inbounds nuw %"class.euf::enode_class::iterator", ptr %3, i32 0, i32 0
  %5 = load ptr, ptr %4, align 8, !tbaa !46
  ret ptr %5
}

; Function Attrs: mustprogress nounwind uwtable
define linkonce_odr hidden noundef zeroext i1 @_ZNK3euf11enode_class8iteratorneERKS1_(ptr noundef nonnull align 8 dereferenceable(16) %0, ptr noundef nonnull align 8 dereferenceable(16) %1) #6 comdat align 2 {
  %3 = alloca ptr, align 8
  %4 = alloca ptr, align 8
  store ptr %0, ptr %3, align 8, !tbaa !42
  store ptr %1, ptr %4, align 8, !tbaa !42
  %5 = load ptr, ptr %3, align 8
  %6 = getelementptr inbounds nuw %"class.euf::enode_class::iterator", ptr %5, i32 0, i32 1
  %7 = load ptr, ptr %6, align 8, !tbaa !44
  %8 = load ptr, ptr %4, align 8, !tbaa !42
  %9 = getelementptr inbounds nuw %"class.euf::enode_class::iterator", ptr %8, i32 0, i32 1
  %10 = load ptr, ptr %9, align 8, !tbaa !44
  %11 = icmp ne ptr %7, %10
  br i1 %11, label %19, label %12

12:                                               ; preds = %2
  %13 = getelementptr inbounds nuw %"class.euf::enode_class::iterator", ptr %5, i32 0, i32 0
  %14 = load ptr, ptr %13, align 8, !tbaa !46
  %15 = load ptr, ptr %4, align 8, !tbaa !42
  %16 = getelementptr inbounds nuw %"class.euf::enode_class::iterator", ptr %15, i32 0, i32 0
  %17 = load ptr, ptr %16, align 8, !tbaa !46
  %18 = icmp ne ptr %14, %17
  br label %19

19:                                               ; preds = %12, %2
  %20 = phi i1 [ true, %2 ], [ %18, %12 ]
  ret i1 %20
}

; Function Attrs: mustprogress uwtable
define linkonce_odr hidden { ptr, ptr } @_ZNK3euf11enode_class3endEv(ptr noundef nonnull align 8 dereferenceable(8) %0) #4 comdat align 2 {
  %2 = alloca %"class.euf::enode_class::iterator", align 8
  %3 = alloca ptr, align 8
  store ptr %0, ptr %3, align 8, !tbaa !14
  %4 = load ptr, ptr %3, align 8
  %5 = getelementptr inbounds nuw %"class.euf::enode_class", ptr %4, i32 0, i32 0
  %6 = load ptr, ptr %5, align 8, !tbaa !40
  %7 = getelementptr inbounds nuw %"class.euf::enode_class", ptr %4, i32 0, i32 0
  %8 = load ptr, ptr %7, align 8, !tbaa !40
  call void @_ZN3euf11enode_class8iteratorC2EPNS_5enodeES3_(ptr noundef nonnull align 8 dereferenceable(16) %2, ptr noundef %6, ptr noundef %8)
  %9 = load { ptr, ptr }, ptr %2, align 8
  ret { ptr, ptr } %9
}

; Function Attrs: mustprogress uwtable
define linkonce_odr hidden { ptr, ptr } @_ZNK3euf11enode_class5beginEv(ptr noundef nonnull align 8 dereferenceable(8) %0) #4 comdat align 2 {
  %2 = alloca %"class.euf::enode_class::iterator", align 8
  %3 = alloca ptr, align 8
  store ptr %0, ptr %3, align 8, !tbaa !14
  %4 = load ptr, ptr %3, align 8
  %5 = getelementptr inbounds nuw %"class.euf::enode_class", ptr %4, i32 0, i32 0
  %6 = load ptr, ptr %5, align 8, !tbaa !40
  call void @_ZN3euf11enode_class8iteratorC2EPNS_5enodeES3_(ptr noundef nonnull align 8 dereferenceable(16) %2, ptr noundef %6, ptr noundef null)
  %7 = load { ptr, ptr }, ptr %2, align 8
  ret { ptr, ptr } %7
}

; Function Attrs: mustprogress nounwind uwtable
define linkonce_odr hidden void @_ZN3euf11enode_classC2EPNS_5enodeE(ptr noundef nonnull align 8 dereferenceable(8) %0, ptr noundef %1) unnamed_addr #6 comdat align 2 {
  %3 = alloca ptr, align 8
  %4 = alloca ptr, align 8
  store ptr %0, ptr %3, align 8, !tbaa !14
  store ptr %1, ptr %4, align 8, !tbaa !3
  %5 = load ptr, ptr %3, align 8
  %6 = getelementptr inbounds nuw %"class.euf::enode_class", ptr %5, i32 0, i32 0
  %7 = load ptr, ptr %4, align 8, !tbaa !3
  store ptr %7, ptr %6, align 8, !tbaa !3
  ret void
}

; Function Attrs: mustprogress uwtable
define hidden noundef i32 @_ZN3euf5enode16class_generationEv(ptr noundef nonnull align 8 dereferenceable(176) %0) #4 align 2 {
  %2 = alloca ptr, align 8
  %3 = alloca i32, align 4
  %4 = alloca ptr, align 8
  %5 = alloca %"class.euf::enode_class", align 8
  %6 = alloca %"class.euf::enode_class::iterator", align 8
  %7 = alloca %"class.euf::enode_class::iterator", align 8
  %8 = alloca ptr, align 8
  %9 = alloca i32, align 4
  store ptr %0, ptr %2, align 8, !tbaa !3
  %10 = load ptr, ptr %2, align 8
  call void @llvm.lifetime.start.p0(i64 4, ptr %3) #3
  %11 = getelementptr inbounds nuw %"class.euf::enode", ptr %10, i32 0, i32 15
  %12 = load i32, ptr %11, align 8, !tbaa !66
  store i32 %12, ptr %3, align 4, !tbaa !10
  call void @llvm.lifetime.start.p0(i64 8, ptr %4) #3
  call void @llvm.lifetime.start.p0(i64 8, ptr %5) #3
  call void @_ZN3euf11enode_classC2EPNS_5enodeE(ptr noundef nonnull align 8 dereferenceable(8) %5, ptr noundef %10)
  store ptr %5, ptr %4, align 8, !tbaa !14
  call void @llvm.lifetime.start.p0(i64 16, ptr %6) #3
  %13 = load ptr, ptr %4, align 8, !tbaa !14
  %14 = call { ptr, ptr } @_ZNK3euf11enode_class5beginEv(ptr noundef nonnull align 8 dereferenceable(8) %13)
  %15 = getelementptr inbounds nuw { ptr, ptr }, ptr %6, i32 0, i32 0
  %16 = extractvalue { ptr, ptr } %14, 0
  store ptr %16, ptr %15, align 8
  %17 = getelementptr inbounds nuw { ptr, ptr }, ptr %6, i32 0, i32 1
  %18 = extractvalue { ptr, ptr } %14, 1
  store ptr %18, ptr %17, align 8
  call void @llvm.lifetime.start.p0(i64 16, ptr %7) #3
  %19 = load ptr, ptr %4, align 8, !tbaa !14
  %20 = call { ptr, ptr } @_ZNK3euf11enode_class3endEv(ptr noundef nonnull align 8 dereferenceable(8) %19)
  %21 = getelementptr inbounds nuw { ptr, ptr }, ptr %7, i32 0, i32 0
  %22 = extractvalue { ptr, ptr } %20, 0
  store ptr %22, ptr %21, align 8
  %23 = getelementptr inbounds nuw { ptr, ptr }, ptr %7, i32 0, i32 1
  %24 = extractvalue { ptr, ptr } %20, 1
  store ptr %24, ptr %23, align 8
  br label %25

25:                                               ; preds = %34, %1
  %26 = call noundef zeroext i1 @_ZNK3euf11enode_class8iteratorneERKS1_(ptr noundef nonnull align 8 dereferenceable(16) %6, ptr noundef nonnull align 8 dereferenceable(16) %7)
  br i1 %26, label %28, label %27

27:                                               ; preds = %25
  call void @llvm.lifetime.end.p0(i64 16, ptr %7) #3
  call void @llvm.lifetime.end.p0(i64 16, ptr %6) #3
  call void @llvm.lifetime.end.p0(i64 8, ptr %5) #3
  call void @llvm.lifetime.end.p0(i64 8, ptr %4) #3
  br label %36

28:                                               ; preds = %25
  call void @llvm.lifetime.start.p0(i64 8, ptr %8) #3
  %29 = call noundef ptr @_ZN3euf11enode_class8iteratordeEv(ptr noundef nonnull align 8 dereferenceable(16) %6)
  store ptr %29, ptr %8, align 8, !tbaa !3
  call void @llvm.lifetime.start.p0(i64 4, ptr %9) #3
  %30 = load ptr, ptr %8, align 8, !tbaa !3
  %31 = call noundef i32 @_ZNK3euf5enode10generationEv(ptr noundef nonnull align 8 dereferenceable(176) %30)
  store i32 %31, ptr %9, align 4, !tbaa !10
  %32 = call noundef nonnull align 4 dereferenceable(4) ptr @_ZSt3minIjERKT_S2_S2_(ptr noundef nonnull align 4 dereferenceable(4) %9, ptr noundef nonnull align 4 dereferenceable(4) %3)
  %33 = load i32, ptr %32, align 4, !tbaa !10
  store i32 %33, ptr %3, align 4, !tbaa !10
  call void @llvm.lifetime.end.p0(i64 4, ptr %9) #3
  call void @llvm.lifetime.end.p0(i64 8, ptr %8) #3
  br label %34

34:                                               ; preds = %28
  %35 = call noundef nonnull align 8 dereferenceable(16) ptr @_ZN3euf11enode_class8iteratorppEv(ptr noundef nonnull align 8 dereferenceable(16) %6)
  br label %25

36:                                               ; preds = %27
  %37 = load i32, ptr %3, align 4, !tbaa !10
  call void @llvm.lifetime.end.p0(i64 4, ptr %3) #3
  ret i32 %37
}