; Function Attrs: mustprogress nofree norecurse nosync nounwind willreturn memory(read, inaccessiblemem: none) uwtable
define hidden noundef i32 @_ZN3euf5enode16class_generationEv(ptr noundef nonnull readonly align 8 captures(address) dereferenceable(176) %0) local_unnamed_addr #5 align 2 {
  %2 = getelementptr inbounds nuw i8, ptr %0, i64 40
  %3 = load i32, ptr %2, align 8, !tbaa !51
  br label %_ZN3euf11enode_class8iteratorppEv.exit

4:                                                ; preds = %_ZN3euf11enode_class8iteratorppEv.exit
  ret i32 %.sroa.speculated

_ZN3euf11enode_class8iteratorppEv.exit:           ; preds = %1, %_ZN3euf11enode_class8iteratorppEv.exit
  %.018 = phi i32 [ %3, %1 ], [ %.sroa.speculated, %_ZN3euf11enode_class8iteratorppEv.exit ]
  %.sroa.7.017 = phi ptr [ null, %1 ], [ %spec.select, %_ZN3euf11enode_class8iteratorppEv.exit ]
  %.sroa.08.016 = phi ptr [ %0, %1 ], [ %8, %_ZN3euf11enode_class8iteratorppEv.exit ]
  %5 = getelementptr inbounds nuw i8, ptr %.sroa.08.016, i64 40
  %6 = load i32, ptr %5, align 8, !tbaa !51
  %.sroa.speculated = tail call i32 @llvm.umin.i32(i32 %.018, i32 %6)
  %.not.i6 = icmp eq ptr %.sroa.7.017, null
  %spec.select = select i1 %.not.i6, ptr %.sroa.08.016, ptr %.sroa.7.017
  %7 = getelementptr inbounds nuw i8, ptr %.sroa.08.016, i64 56
  %8 = load ptr, ptr %7, align 8, !tbaa !24
  %.not.i = icmp ne ptr %spec.select, %0
  %9 = icmp ne ptr %8, %0
  %10 = select i1 %.not.i, i1 true, i1 %9
  br i1 %10, label %_ZN3euf11enode_class8iteratorppEv.exit, label %4
}